target datalayout = "e-m:e-p270:32:32-p271:32:32-p272:64:64-i64:64-i128:128-f80:128-n8:16:32:64-S128"
target triple = "x86_64-pc-linux-gnu"

%struct.point_t = type { float, float }
%struct.dt_lut_t = type { ptr, ptr, ptr, ptr, ptr, ptr, ptr, ptr, ptr, ptr, ptr, ptr, ptr, ptr, ptr, ptr, ptr, %struct.image_t, %struct.image_t, ptr, ptr, ptr, ptr, ptr }
%struct.image_t = type { ptr, ptr, ptr, i32, i32, ptr, float, i32, i32, float, [4 x %struct.point_t], ptr, i32 }

@.str.79 = private unnamed_addr constant [9 x i8] c".dtstyle\00", align 1

; Function Attrs: nounwind uwtable
define internal void @export_button_clicked_callback(ptr noundef %0, ptr noundef %1) #0 {
  %3 = alloca ptr, align 8
  %4 = alloca ptr, align 8
  %5 = alloca ptr, align 8
  %6 = alloca i32, align 4
  %7 = alloca ptr, align 8
  %8 = alloca ptr, align 8
  %9 = alloca i32, align 4
  %10 = alloca i32, align 4
  %11 = alloca i32, align 4
  %12 = alloca i32, align 4
  %13 = alloca ptr, align 8
  store ptr %0, ptr %3, align 8, !tbaa !143
  store ptr %1, ptr %4, align 8, !tbaa !62
  call void @llvm.lifetime.start.p0(i64 8, ptr %5) #15
  %14 = load ptr, ptr %4, align 8, !tbaa !62
  store ptr %14, ptr %5, align 8, !tbaa !14
  %15 = load ptr, ptr %5, align 8, !tbaa !14
  %16 = getelementptr inbounds nuw %struct.dt_lut_t, ptr %15, i32 0, i32 22
  %17 = load ptr, ptr %16, align 8, !tbaa !32
  %18 = icmp ne ptr %17, null
  br i1 %18, label %19, label %24

19:                                               ; preds = %2
  %20 = load ptr, ptr %5, align 8, !tbaa !14
  %21 = getelementptr inbounds nuw %struct.dt_lut_t, ptr %20, i32 0, i32 23
  %22 = load ptr, ptr %21, align 8, !tbaa !33
  %23 = icmp ne ptr %22, null
  br i1 %23, label %25, label %24

24:                                               ; preds = %19, %2
  store i32 1, ptr %6, align 4
  br label %43

25:                                               ; preds = %19
  call void @llvm.lifetime.start.p0(i64 8, ptr %7) #15
  store ptr null, ptr %7, align 8, !tbaa !29
  call void @llvm.lifetime.start.p0(i64 8, ptr %8) #15
  store ptr null, ptr %8, align 8, !tbaa !29
  call void @llvm.lifetime.start.p0(i64 4, ptr %9) #15
  call void @llvm.lifetime.start.p0(i64 4, ptr %10) #15
  call void @llvm.lifetime.start.p0(i64 4, ptr %11) #15
  call void @llvm.lifetime.start.p0(i64 4, ptr %12) #15
  call void @llvm.lifetime.start.p0(i64 8, ptr %13) #15
  %26 = load ptr, ptr %5, align 8, !tbaa !14
  %27 = call ptr @get_export_filename(ptr noundef %26, ptr noundef @.str.79, ptr noundef %7, ptr noundef %8, ptr noundef %9, ptr noundef %10, ptr noundef %11, ptr noundef %12)
  store ptr %27, ptr %13, align 8, !tbaa !29
  %28 = load ptr, ptr %13, align 8, !tbaa !29
  %29 = icmp ne ptr %28, null
  br i1 %29, label %30, label %39

30:                                               ; preds = %25
  %31 = load ptr, ptr %5, align 8, !tbaa !14
  %32 = load ptr, ptr %13, align 8, !tbaa !29
  %33 = load ptr, ptr %7, align 8, !tbaa !29
  %34 = load ptr, ptr %8, align 8, !tbaa !29
  %35 = load i32, ptr %9, align 4, !tbaa !7
  %36 = load i32, ptr %10, align 4, !tbaa !7
  %37 = load i32, ptr %11, align 4, !tbaa !7
  %38 = load i32, ptr %12, align 4, !tbaa !7
  call void @export_style(ptr noundef %31, ptr noundef %32, ptr noundef %33, ptr noundef %34, i32 noundef %35, i32 noundef %36, i32 noundef %37, i32 noundef %38)
  br label %39

39:                                               ; preds = %30, %25
  %40 = load ptr, ptr %7, align 8, !tbaa !29
  call void @g_free(ptr noundef %40)
  %41 = load ptr, ptr %8, align 8, !tbaa !29
  call void @g_free(ptr noundef %41)
  %42 = load ptr, ptr %13, align 8, !tbaa !29
  call void @g_free(ptr noundef %42)
  call void @llvm.lifetime.end.p0(i64 8, ptr %13) #15
  call void @llvm.lifetime.end.p0(i64 4, ptr %12) #15
  call void @llvm.lifetime.end.p0(i64 4, ptr %11) #15
  call void @llvm.lifetime.end.p0(i64 4, ptr %10) #15
  call void @llvm.lifetime.end.p0(i64 4, ptr %9) #15
  call void @llvm.lifetime.end.p0(i64 8, ptr %8) #15
  call void @llvm.lifetime.end.p0(i64 8, ptr %7) #15
  store i32 0, ptr %6, align 4
  br label %43

43:                                               ; preds = %39, %24
  call void @llvm.lifetime.end.p0(i64 8, ptr %5) #15
  %44 = load i32, ptr %6, align 4
  switch i32 %44, label %46 [
    i32 0, label %45
    i32 1, label %45
  ]

45:                                               ; preds = %43, %43
  ret void

46:                                               ; preds = %43
  unreachable
}