; Function Attrs: nounwind uwtable
define internal void @export_button_clicked_callback(ptr readnone captures(none) %0, ptr noundef readonly captures(none) %1) #0 {
  %3 = alloca ptr, align 8
  %4 = alloca ptr, align 8
  %5 = alloca i32, align 4
  %6 = alloca i32, align 4
  %7 = alloca i32, align 4
  %8 = alloca i32, align 4
  %9 = getelementptr inbounds nuw i8, ptr %1, i64 368
  %10 = load ptr, ptr %9, align 8, !tbaa !65
  %.not = icmp eq ptr %10, null
  br i1 %.not, label %22, label %11

11:                                               ; preds = %2
  %12 = getelementptr inbounds nuw i8, ptr %1, i64 376
  %13 = load ptr, ptr %12, align 8, !tbaa !66
  %.not8 = icmp eq ptr %13, null
  br i1 %.not8, label %22, label %14

14:                                               ; preds = %11
  call void @llvm.lifetime.start.p0(i64 8, ptr nonnull %3) #24
  call void @llvm.lifetime.start.p0(i64 8, ptr nonnull %4) #24
  call void @llvm.lifetime.start.p0(i64 4, ptr nonnull %5) #24
  call void @llvm.lifetime.start.p0(i64 4, ptr nonnull %6) #24
  call void @llvm.lifetime.start.p0(i64 4, ptr nonnull %7) #24
  call void @llvm.lifetime.start.p0(i64 4, ptr nonnull %8) #24
  %15 = call fastcc ptr @get_export_filename(ptr noundef nonnull %1, ptr noundef nonnull @.str.79, ptr noundef %3, ptr noundef %4, ptr noundef nonnull %5, ptr noundef nonnull %6, ptr noundef nonnull %7, ptr noundef nonnull %8)
  %.not9 = icmp eq ptr %15, null
  %.pre = load ptr, ptr %3, align 8, !tbaa !24
  %.pre10 = load ptr, ptr %4, align 8, !tbaa !24
  br i1 %.not9, label %21, label %16

16:                                               ; preds = %14
  %17 = load i32, ptr %5, align 4, !tbaa !32
  %18 = load i32, ptr %6, align 4, !tbaa !32
  %19 = load i32, ptr %7, align 4, !tbaa !32
  %20 = load i32, ptr %8, align 4, !tbaa !32
  call fastcc void @export_style(ptr noundef nonnull %1, ptr noundef nonnull %15, ptr noundef %.pre, ptr noundef %.pre10, i32 noundef %17, i32 noundef %18, i32 noundef %19, i32 noundef %20)
  br label %21

21:                                               ; preds = %16, %14
  call void @g_free(ptr noundef %.pre) #24
  call void @g_free(ptr noundef %.pre10) #24
  call void @g_free(ptr noundef %15) #24
  call void @llvm.lifetime.end.p0(i64 4, ptr nonnull %8) #24
  call void @llvm.lifetime.end.p0(i64 4, ptr nonnull %7) #24
  call void @llvm.lifetime.end.p0(i64 4, ptr nonnull %6) #24
  call void @llvm.lifetime.end.p0(i64 4, ptr nonnull %5) #24
  call void @llvm.lifetime.end.p0(i64 8, ptr nonnull %4) #24
  call void @llvm.lifetime.end.p0(i64 8, ptr nonnull %3) #24
  br label %22

22:                                               ; preds = %2, %11, %21
  ret void
}